; Function Attrs: nounwind uwtable
define ptr @l_Lean_Elab_DefView_isInstance___boxed(ptr noundef %0) local_unnamed_addr #1 {
  %2 = getelementptr inbounds nuw i8, ptr %0, i64 24
  %3 = load ptr, ptr %2, align 8, !tbaa !10
  %4 = getelementptr inbounds nuw i8, ptr %3, i64 24
  %5 = load ptr, ptr %4, align 8, !tbaa !10
  %6 = getelementptr i8, ptr %5, i64 8
  %.val.i = load i64, ptr %6, align 8, !tbaa !15
  %.mask.i = and i64 %.val.i, 9223372036854775807
  %.not.i3 = icmp eq i64 %.mask.i, 0
  br i1 %.not.i3, label %l_Lean_Elab_DefView_isInstance.exit, label %lean_dec.exit.i

lean_dec.exit.i:                                  ; preds = %1
  %7 = tail call zeroext i8 @l_Array_anyMUnsafe_any___at_Lean_Elab_DefView_isInstance___spec__1(ptr noundef nonnull %5, i64 noundef 0, i64 noundef %.mask.i)
  %8 = shl nuw nsw i8 %7, 1
  %9 = or disjoint i8 %8, 1
  %10 = zext nneg i8 %9 to i64
  br label %l_Lean_Elab_DefView_isInstance.exit

l_Lean_Elab_DefView_isInstance.exit:              ; preds = %1, %lean_dec.exit.i
  %.0.i = phi i64 [ %10, %lean_dec.exit.i ], [ 1, %1 ]
  %11 = ptrtoint ptr %0 to i64
  %12 = and i64 %11, 1
  %.not = icmp eq i64 %12, 0
  br i1 %.not, label %13, label %lean_dec.exit

13:                                               ; preds = %l_Lean_Elab_DefView_isInstance.exit
  %14 = load i32, ptr %0, align 4, !tbaa !4
  %15 = icmp sgt i32 %14, 1
  br i1 %15, label %16, label %18, !prof !9

16:                                               ; preds = %13
  %17 = add nsw i32 %14, -1
  store i32 %17, ptr %0, align 4, !tbaa !4
  br label %lean_dec.exit

18:                                               ; preds = %13
  %.not.i = icmp eq i32 %14, 0
  br i1 %.not.i, label %lean_dec.exit, label %19

19:                                               ; preds = %18
  tail call void @lean_dec_ref_cold(ptr noundef nonnull %0) #7
  br label %lean_dec.exit

lean_dec.exit:                                    ; preds = %19, %18, %16, %l_Lean_Elab_DefView_isInstance.exit
  %20 = inttoptr i64 %.0.i to ptr
  ret ptr %20
}